target datalayout = "e-m:e-p270:32:32-p271:32:32-p272:64:64-i64:64-i128:128-f80:128-n8:16:32:64-S128"
target triple = "x86_64-pc-linux-gnu"

%struct.msblob2key_ctx_st = type { ptr, ptr, i32 }

@.str = private unnamed_addr constant [71 x i8] c"../openssl/providers/implementations/encode_decode/decode_msblob2key.c\00", align 1
@mstype2rsa_desc = internal constant { i32, [4 x i8], ptr, ptr, ptr, ptr, ptr, ptr } { i32 6, [4 x i8] zeroinitializer, ptr @.str.6, ptr @ossl_rsa_keymgmt_functions, ptr @ossl_b2i_RSA_after_header, ptr @ossl_b2i_RSA_after_header, ptr @rsa_adjust, ptr @RSA_free }, align 8

; Function Attrs: nounwind uwtable
define internal ptr @msblob2key_newctx(ptr noundef %0, ptr noundef %1) #0 {
  %3 = alloca ptr, align 8
  %4 = alloca ptr, align 8
  %5 = alloca ptr, align 8
  store ptr %0, ptr %3, align 8, !tbaa !3
  store ptr %1, ptr %4, align 8, !tbaa !35
  call void @llvm.lifetime.start.p0(i64 8, ptr %5) #5
  %6 = call noalias ptr @CRYPTO_zalloc(i64 noundef 24, ptr noundef @.str, i32 noundef 66)
  store ptr %6, ptr %5, align 8, !tbaa !7
  %7 = load ptr, ptr %5, align 8, !tbaa !7
  %8 = icmp ne ptr %7, null
  br i1 %8, label %9, label %16

9:                                                ; preds = %2
  %10 = load ptr, ptr %3, align 8, !tbaa !3
  %11 = load ptr, ptr %5, align 8, !tbaa !7
  %12 = getelementptr inbounds nuw %struct.msblob2key_ctx_st, ptr %11, i32 0, i32 0
  store ptr %10, ptr %12, align 8, !tbaa !13
  %13 = load ptr, ptr %4, align 8, !tbaa !35
  %14 = load ptr, ptr %5, align 8, !tbaa !7
  %15 = getelementptr inbounds nuw %struct.msblob2key_ctx_st, ptr %14, i32 0, i32 1
  store ptr %13, ptr %15, align 8, !tbaa !22
  br label %16

16:                                               ; preds = %9, %2
  %17 = load ptr, ptr %5, align 8, !tbaa !7
  call void @llvm.lifetime.end.p0(i64 8, ptr %5) #5
  ret ptr %17
}

; Function Attrs: nounwind uwtable
define internal ptr @msblob2rsa_newctx(ptr noundef %0) #0 {
  %2 = alloca ptr, align 8
  store ptr %0, ptr %2, align 8, !tbaa !3
  %3 = load ptr, ptr %2, align 8, !tbaa !3
  %4 = call ptr @msblob2key_newctx(ptr noundef %3, ptr noundef @mstype2rsa_desc)
  ret ptr %4
}